target datalayout = "e-m:e-p270:32:32-p271:32:32-p272:64:64-i64:64-i128:128-f80:128-n8:16:32:64-S128"
target triple = "x86_64-pc-linux-gnu"

%struct.archive_read = type { %struct.archive, ptr, i32, i64, i64, %struct.archive_read_client, [16 x %struct.archive_read_filter_bidder], ptr, i32, i64, i32, i32, [16 x %struct.archive_format_descriptor], ptr, ptr, ptr, %struct.anon }
%struct.archive = type { i32, i32, ptr, i32, ptr, i32, i32, ptr, %struct.archive_string, ptr, i32, i32, ptr, ptr, i64, i64, i64, i8, i64 }
%struct.archive_string = type { ptr, i64, i64 }
%struct.archive_read_client = type { ptr, ptr, ptr, ptr, ptr, ptr, i32, i32, i64, ptr }
%struct.archive_read_filter_bidder = type { ptr, ptr, ptr }
%struct.archive_format_descriptor = type { ptr, ptr, ptr, ptr, ptr, ptr, ptr, ptr, ptr, ptr, ptr }
%struct.anon = type { ptr, ptr, i32, ptr, ptr }
%struct.rar = type { i32, i64, [2 x i8], [4 x i8], i8, i8, i32, i64, i64, i64, i64, i32, ptr, ptr, i64, i64, [8 x i8], i64, i64, i64, i64, i64, i64, i64, i64, i64, i64, i64, i64, i8, i32, i32, ptr, i32, i8, i8, i64, i32, i8, ptr, i32, i32, i8, %struct.huffman_code, %struct.huffman_code, %struct.huffman_code, %struct.huffman_code, [404 x i8], %struct.lzss, i32, i32, [4 x i32], i32, i32, i8, %struct.rar_filters, i8, i8, i8, i32, %struct.CPpmd7, %struct.CPpmd7z_RangeDec, %struct.IByteIn, i32, ptr, ptr, ptr, ptr, %struct.rar_br, i32 }
%struct.huffman_code = type { ptr, i32, i32, i32, i32, i32, ptr }
%struct.lzss = type { ptr, i32, i64 }
%struct.rar_filters = type { ptr, ptr, ptr, i64, i32, i64, ptr, i64 }
%struct.CPpmd7 = type { ptr, ptr, ptr, i32, i32, i32, i32, i32, i32, i32, i32, i32, ptr, ptr, ptr, ptr, ptr, i32, [38 x i8], [128 x i8], [38 x i32], [256 x i8], [256 x i8], [256 x i8], %struct.CPpmd_See, [25 x [16 x %struct.CPpmd_See]], [128 x [64 x i16]] }
%struct.CPpmd_See = type { i16, i8, i8 }
%struct.CPpmd7z_RangeDec = type { %struct.IPpmd7_RangeDec, i32, i32, i32, i32, ptr }
%struct.IPpmd7_RangeDec = type { ptr, ptr, ptr }
%struct.IByteIn = type { ptr, ptr }
%struct.rar_br = type { i64, i32, i64, ptr }

@.str = private unnamed_addr constant [32 x i8] c"archive_read_support_format_rar\00", align 1
@.str.1 = private unnamed_addr constant [24 x i8] c"Can't allocate rar data\00", align 1
@.str.2 = private unnamed_addr constant [4 x i8] c"rar\00", align 1

; Function Attrs: nounwind uwtable
define dso_local i32 @archive_read_support_format_rar(ptr noundef %0) #0 {
  %2 = alloca i32, align 4
  %3 = alloca ptr, align 8
  %4 = alloca ptr, align 8
  %5 = alloca ptr, align 8
  %6 = alloca i32, align 4
  %7 = alloca i32, align 4
  store ptr %0, ptr %3, align 8
  %8 = load ptr, ptr %3, align 8
  store ptr %8, ptr %4, align 8
  br label %9

9:                                                ; preds = %1
  %10 = load ptr, ptr %3, align 8
  %11 = call i32 @__archive_check_magic(ptr noundef %10, i32 noundef 14594245, i32 noundef 1, ptr noundef @.str)
  store i32 %11, ptr %7, align 4
  %12 = load i32, ptr %7, align 4
  %13 = icmp eq i32 %12, -30
  br i1 %13, label %14, label %15

14:                                               ; preds = %9
  store i32 -30, ptr %2, align 4
  br label %35

15:                                               ; preds = %9
  br label %16

16:                                               ; preds = %15
  %17 = call noalias ptr @calloc(i64 noundef 20312, i64 noundef 1) #11
  store ptr %17, ptr %5, align 8
  %18 = load ptr, ptr %5, align 8
  %19 = icmp eq ptr %18, null
  br i1 %19, label %20, label %23

20:                                               ; preds = %16
  %21 = load ptr, ptr %4, align 8
  %22 = getelementptr inbounds %struct.archive_read, ptr %21, i32 0, i32 0
  call void (ptr, i32, ptr, ...) @archive_set_error(ptr noundef %22, i32 noundef 12, ptr noundef @.str.1)
  store i32 -30, ptr %2, align 4
  br label %35

23:                                               ; preds = %16
  %24 = load ptr, ptr %5, align 8
  %25 = getelementptr inbounds %struct.rar, ptr %24, i32 0, i32 69
  store i32 -1, ptr %25, align 8
  %26 = load ptr, ptr %4, align 8
  %27 = load ptr, ptr %5, align 8
  %28 = call i32 @__archive_read_register_format(ptr noundef %26, ptr noundef %27, ptr noundef @.str.2, ptr noundef @archive_read_format_rar_bid, ptr noundef @archive_read_format_rar_options, ptr noundef @archive_read_format_rar_read_header, ptr noundef @archive_read_format_rar_read_data, ptr noundef @archive_read_format_rar_read_data_skip, ptr noundef @archive_read_format_rar_seek_data, ptr noundef @archive_read_format_rar_cleanup, ptr noundef @archive_read_support_format_rar_capabilities, ptr noundef @archive_read_format_rar_has_encrypted_entries)
  store i32 %28, ptr %6, align 4
  %29 = load i32, ptr %6, align 4
  %30 = icmp ne i32 %29, 0
  br i1 %30, label %31, label %33

31:                                               ; preds = %23
  %32 = load ptr, ptr %5, align 8
  call void @free(ptr noundef %32) #12
  br label %33

33:                                               ; preds = %31, %23
  %34 = load i32, ptr %6, align 4
  store i32 %34, ptr %2, align 4
  br label %35

35:                                               ; preds = %33, %20, %14
  %36 = load i32, ptr %2, align 4
  ret i32 %36
}