; Function Attrs: nounwind uwtable
define dso_local i32 @archive_read_support_format_rar(ptr noundef %0) local_unnamed_addr #0 {
  %2 = tail call i32 @__archive_check_magic(ptr noundef %0, i32 noundef 14594245, i32 noundef 1, ptr noundef nonnull @.str) #19
  %3 = icmp eq i32 %2, -30
  br i1 %3, label %12, label %4

4:                                                ; preds = %1
  %5 = tail call noalias dereferenceable_or_null(20312) ptr @calloc(i64 noundef 20312, i64 noundef 1) #20
  %6 = icmp eq ptr %5, null
  br i1 %6, label %7, label %8

7:                                                ; preds = %4
  tail call void (ptr, i32, ptr, ...) @archive_set_error(ptr noundef %0, i32 noundef 12, ptr noundef nonnull @.str.1) #19
  br label %12

8:                                                ; preds = %4
  %9 = getelementptr inbounds nuw i8, ptr %5, i64 20304
  store i32 -1, ptr %9, align 8
  %10 = tail call i32 @__archive_read_register_format(ptr noundef %0, ptr noundef nonnull %5, ptr noundef nonnull @.str.2, ptr noundef nonnull @archive_read_format_rar_bid, ptr noundef nonnull @archive_read_format_rar_options, ptr noundef nonnull @archive_read_format_rar_read_header, ptr noundef nonnull @archive_read_format_rar_read_data, ptr noundef nonnull @archive_read_format_rar_read_data_skip, ptr noundef nonnull @archive_read_format_rar_seek_data, ptr noundef nonnull @archive_read_format_rar_cleanup, ptr noundef nonnull @archive_read_support_format_rar_capabilities, ptr noundef nonnull @archive_read_format_rar_has_encrypted_entries) #19
  %.not = icmp eq i32 %10, 0
  br i1 %.not, label %12, label %11

11:                                               ; preds = %8
  tail call void @free(ptr noundef nonnull %5) #19
  br label %12

12:                                               ; preds = %8, %11, %1, %7
  %.0 = phi i32 [ -30, %7 ], [ -30, %1 ], [ %10, %11 ], [ 0, %8 ]
  ret i32 %.0
}